; Function Attrs: mustprogress nofree nounwind willreturn memory(read) uwtable
define hidden noundef i32 @_ZNK6google8protobuf8internal12ExtensionSet13NumExtensionsEv(ptr noundef nonnull readonly align 8 captures(none) dereferenceable(24) %0) local_unnamed_addr #16 align 2 {
  %2 = getelementptr inbounds nuw i8, ptr %0, i64 10
  %.val = load i16, ptr %2, align 2, !tbaa !66
  %3 = getelementptr inbounds nuw i8, ptr %0, i64 16
  %.val2 = load ptr, ptr %3, align 8
  %4 = icmp slt i16 %.val, 0
  br i1 %4, label %5, label %14, !prof !50

5:                                                ; preds = %1
  %6 = getelementptr inbounds nuw i8, ptr %.val2, i64 24
  %7 = load ptr, ptr %6, align 8, !tbaa !67
  %8 = getelementptr inbounds nuw i8, ptr %.val2, i64 8
  %.not8.i.i = icmp eq ptr %7, %8
  br i1 %.not8.i.i, label %"_ZNK6google8protobuf8internal12ExtensionSet7ForEachIZNKS2_13NumExtensionsEvE3$_0EET_S5_.exit", label %.lr.ph.i.i

.lr.ph.i.i:                                       ; preds = %5, %.lr.ph.i.i
  %.2 = phi i32 [ %spec.select, %.lr.ph.i.i ], [ 0, %5 ]
  %.sroa.0.09.i.i = phi ptr [ %13, %.lr.ph.i.i ], [ %7, %5 ]
  %9 = getelementptr i8, ptr %.sroa.0.09.i.i, i64 50
  %.val2.i.i = load i8, ptr %9, align 2
  %10 = and i8 %.val2.i.i, 1
  %11 = xor i8 %10, 1
  %12 = zext nneg i8 %11 to i32
  %spec.select = add nuw nsw i32 %.2, %12
  %13 = tail call noundef ptr @_ZSt18_Rb_tree_incrementPSt18_Rb_tree_node_base(ptr noundef nonnull %.sroa.0.09.i.i) #34
  %.not.i.i = icmp eq ptr %13, %8
  br i1 %.not.i.i, label %"_ZNK6google8protobuf8internal12ExtensionSet7ForEachIZNKS2_13NumExtensionsEvE3$_0EET_S5_.exit", label %.lr.ph.i.i, !llvm.loop !81

14:                                               ; preds = %1
  %15 = zext nneg i16 %.val to i64
  %16 = getelementptr inbounds nuw %"struct.google::protobuf::internal::ExtensionSet::KeyValue", ptr %.val2, i64 %15
  %.not7.i.i = icmp eq i16 %.val, 0
  br i1 %.not7.i.i, label %"_ZNK6google8protobuf8internal12ExtensionSet7ForEachIZNKS2_13NumExtensionsEvE3$_0EET_S5_.exit", label %.lr.ph.i6.i

.lr.ph.i6.i:                                      ; preds = %14, %.lr.ph.i6.i
  %.0 = phi i32 [ %spec.select5, %.lr.ph.i6.i ], [ 0, %14 ]
  %.08.i.i = phi ptr [ %21, %.lr.ph.i6.i ], [ %.val2, %14 ]
  %17 = getelementptr i8, ptr %.08.i.i, i64 18
  %.val6.i.i = load i8, ptr %17, align 2
  %18 = and i8 %.val6.i.i, 1
  %19 = xor i8 %18, 1
  %20 = zext nneg i8 %19 to i32
  %spec.select5 = add nuw nsw i32 %.0, %20
  %21 = getelementptr inbounds nuw i8, ptr %.08.i.i, i64 32
  %.not.i8.i = icmp eq ptr %21, %16
  br i1 %.not.i8.i, label %"_ZNK6google8protobuf8internal12ExtensionSet7ForEachIZNKS2_13NumExtensionsEvE3$_0EET_S5_.exit", label %.lr.ph.i6.i, !llvm.loop !82

"_ZNK6google8protobuf8internal12ExtensionSet7ForEachIZNKS2_13NumExtensionsEvE3$_0EET_S5_.exit": ; preds = %.lr.ph.i6.i, %.lr.ph.i.i, %5, %14
  %.4 = phi i32 [ 0, %5 ], [ 0, %14 ], [ %spec.select, %.lr.ph.i.i ], [ %spec.select5, %.lr.ph.i6.i ]
  ret i32 %.4
}